TN:
SF:/home/vlad/CLionProjects/tp_c_cpp_2019/tests/test.cpp
FN:16,_ZN17TestSerializationC2Ev
FN:29,_ZN17TestSerializationD0Ev
FN:29,_ZN17TestSerializationD2Ev
FN:32,_ZN17TestSerialization5SetUpEv
FN:35,_ZN17TestSerialization8TearDownEv
FN:43,_ZN33TestSerialization_bufferTest_TestC2Ev
FN:43,_ZN33TestSerialization_bufferTest_Test8TestBodyEv
FN:43,_ZN33TestSerialization_bufferTest_TestD0Ev
FN:43,_ZN33TestSerialization_bufferTest_TestD2Ev
FN:67,main
FN:71,_Z41__static_initialization_and_destruction_0ii
FN:71,_GLOBAL__sub_I__ZN33TestSerialization_bufferTest_Test10test_info_E
FNDA:1,_ZN17TestSerializationC2Ev
FNDA:0,_ZN17TestSerializationD0Ev
FNDA:1,_ZN17TestSerializationD2Ev
FNDA:1,_ZN17TestSerialization5SetUpEv
FNDA:1,_ZN17TestSerialization8TearDownEv
FNDA:1,_ZN33TestSerialization_bufferTest_TestD0Ev
FNDA:1,_ZN33TestSerialization_bufferTest_TestD2Ev
FNDA:1,_ZN33TestSerialization_bufferTest_Test8TestBodyEv
FNDA:1,_ZN33TestSerialization_bufferTest_TestC2Ev
FNDA:1,main
FNDA:1,_GLOBAL__sub_I__ZN33TestSerialization_bufferTest_Test10test_info_E
FNDA:1,_Z41__static_initialization_and_destruction_0ii
FNF:12
FNH:11
DA:16,1
DA:17,1
DA:18,1
DA:20,1
DA:22,104857601
DA:23,104857600
DA:24,104857600
DA:27,1
DA:28,1
DA:29,1
DA:30,1
DA:31,1
DA:32,1
DA:34,1
DA:35,1
DA:37,1
DA:43,5
DA:45,1
DA:46,1
DA:47,1
DA:48,1
DA:50,1
DA:52,1
DA:53,1
DA:54,1
DA:55,1
DA:57,1
DA:58,1
DA:60,1
DA:62,1
DA:63,1
DA:64,1
DA:65,1
DA:67,1
DA:69,1
DA:70,1
DA:71,3
LF:37
LH:37
end_of_record
SF:/usr/include/c++/7/iostream
DA:74,1
LF:1
LH:1
end_of_record
SF:/usr/include/gtest/gtest-message.h
FN:85,_ZN7testing7MessageD2Ev
FNDA:43,_ZN7testing7MessageD2Ev
FNF:1
FNH:1
DA:85,43
LF:1
LH:1
end_of_record
SF:/usr/include/gtest/gtest.h
FN:256,_ZN7testing15AssertionResultD2Ev
FN:272,_ZN7testing15AssertionResultC2IbEERKT_PNS_8internal8EnableIfIXntsrNS5_21ImplicitlyConvertibleIS2_S0_EE5valueEE4typeE
FN:288,_ZNK7testing15AssertionResultcvbEv
FN:389,_ZN7testing4Test13SetUpTestCaseEv
FN:397,_ZN7testing4Test16TearDownTestCaseEv
FN:474,_ZN7testing4Test5SetupEv
FN:2232,_Z13RUN_ALL_TESTSv
FNDA:1,_ZN7testing15AssertionResultD2Ev
FNDA:1,_ZN7testing15AssertionResultC2IbEERKT_PNS_8internal8EnableIfIXntsrNS5_21ImplicitlyConvertibleIS2_S0_EE5valueEE4typeE
FNDA:1,_ZNK7testing15AssertionResultcvbEv
FNDA:1,_ZN7testing4Test13SetUpTestCaseEv
FNDA:1,_ZN7testing4Test16TearDownTestCaseEv
FNDA:0,_ZN7testing4Test5SetupEv
FNDA:1,_Z13RUN_ALL_TESTSv
FNF:7
FNH:6
DA:256,1
DA:272,1
DA:277,1
DA:288,1
DA:389,1
DA:397,1
DA:474,0
DA:2232,1
DA:2233,1
LF:9
LH:8
end_of_record
SF:/usr/include/gtest/internal/gtest-internal.h
FN:447,_ZN7testing8internal9GetTypeIdI17TestSerializationEEPKvv
FN:466,_ZN7testing8internal15TestFactoryBaseD0Ev
FN:466,_ZN7testing8internal15TestFactoryBaseD2Ev
FN:473,_ZN7testing8internal15TestFactoryBaseC2Ev
FN:482,_ZN7testing8internal15TestFactoryImplI33TestSerialization_bufferTest_TestED0Ev
FN:482,_ZN7testing8internal15TestFactoryImplI33TestSerialization_bufferTest_TestEC2Ev
FN:482,_ZN7testing8internal15TestFactoryImplI33TestSerialization_bufferTest_TestED2Ev
FN:484,_ZN7testing8internal15TestFactoryImplI33TestSerialization_bufferTest_TestE10CreateTestEv
FN:504,_ZN7testing8internal12CodeLocationD2Ev
FN:505,_ZN7testing8internal12CodeLocationC2ERKNSt7__cxx1112basic_stringIcSt11char_traitsIcESaIcEEEi
FNDA:1,_ZN7testing8internal9GetTypeIdI17TestSerializationEEPKvv
FNDA:0,_ZN7testing8internal15TestFactoryBaseD0Ev
FNDA:2,_ZN7testing8internal15TestFactoryBaseD2Ev
FNDA:1,_ZN7testing8internal15TestFactoryBaseC2Ev
FNDA:2,_ZN7testing8internal15TestFactoryImplI33TestSerialization_bufferTest_TestED0Ev
FNDA:2,_ZN7testing8internal15TestFactoryImplI33TestSerialization_bufferTest_TestED2Ev
FNDA:1,_ZN7testing8internal15TestFactoryImplI33TestSerialization_bufferTest_TestEC2Ev
FNDA:1,_ZN7testing8internal15TestFactoryImplI33TestSerialization_bufferTest_TestE10CreateTestEv
FNDA:4,_ZN7testing8internal12CodeLocationD2Ev
FNDA:1,_ZN7testing8internal12CodeLocationC2ERKNSt7__cxx1112basic_stringIcSt11char_traitsIcESaIcEEEi
FNF:10
FNH:9
DA:447,1
DA:452,1
DA:466,2
DA:473,1
DA:482,5
DA:484,1
DA:504,4
DA:505,1
LF:8
LH:8
end_of_record
SF:/usr/include/gtest/internal/gtest-port.h
FN:1119,_ZN7testing8internal10scoped_ptrINSt7__cxx1112basic_stringIcSt11char_traitsIcESaIcEEEEC2EPS7_
FN:1120,_ZN7testing8internal10scoped_ptrINSt7__cxx1118basic_stringstreamIcSt11char_traitsIcESaIcEEEED2Ev
FN:1120,_ZN7testing8internal10scoped_ptrINSt7__cxx1112basic_stringIcSt11char_traitsIcESaIcEEEED2Ev
FN:1132,_ZN7testing8internal10scoped_ptrINSt7__cxx1112basic_stringIcSt11char_traitsIcESaIcEEEE5resetEPS7_
FN:1132,_ZN7testing8internal10scoped_ptrINSt7__cxx1118basic_stringstreamIcSt11char_traitsIcESaIcEEEE5resetEPS7_
FNDA:1,_ZN7testing8internal10scoped_ptrINSt7__cxx1112basic_stringIcSt11char_traitsIcESaIcEEEEC2EPS7_
FNDA:1,_ZN7testing8internal10scoped_ptrINSt7__cxx1112basic_stringIcSt11char_traitsIcESaIcEEEED2Ev
FNDA:43,_ZN7testing8internal10scoped_ptrINSt7__cxx1118basic_stringstreamIcSt11char_traitsIcESaIcEEEED2Ev
FNDA:43,_ZN7testing8internal10scoped_ptrINSt7__cxx1118basic_stringstreamIcSt11char_traitsIcESaIcEEEE5resetEPS7_
FNDA:1,_ZN7testing8internal10scoped_ptrINSt7__cxx1112basic_stringIcSt11char_traitsIcESaIcEEEE5resetEPS7_
FNF:5
FNH:5
DA:1119,1
DA:1120,44
DA:1132,44
DA:1133,44
DA:1134,43
DA:1135,43
DA:1137,43
DA:1139,44
LF:8
LH:8
end_of_record
